target datalayout = "e-m:e-p270:32:32-p271:32:32-p272:64:64-i64:64-i128:128-f80:128-n8:16:32:64-S128"
target triple = "x86_64-pc-linux-gnu"

%struct.fdt_header = type { i32, i32, i32, i32, i32, i32, i32, i32, i32, i32 }

; Function Attrs: nounwind uwtable
define dso_local i64 @fdt_header_size_(i32 noundef %0) #0 {
  %2 = alloca i64, align 8
  %3 = alloca i32, align 4
  store i32 %0, ptr %3, align 4
  %4 = load i32, ptr %3, align 4
  %5 = icmp ule i32 %4, 1
  br i1 %5, label %6, label %7

6:                                                ; preds = %1
  store i64 28, ptr %2, align 8
  br label %20

7:                                                ; preds = %1
  %8 = load i32, ptr %3, align 4
  %9 = icmp ule i32 %8, 2
  br i1 %9, label %10, label %11

10:                                               ; preds = %7
  store i64 32, ptr %2, align 8
  br label %20

11:                                               ; preds = %7
  %12 = load i32, ptr %3, align 4
  %13 = icmp ule i32 %12, 3
  br i1 %13, label %14, label %15

14:                                               ; preds = %11
  store i64 36, ptr %2, align 8
  br label %20

15:                                               ; preds = %11
  %16 = load i32, ptr %3, align 4
  %17 = icmp ule i32 %16, 16
  br i1 %17, label %18, label %19

18:                                               ; preds = %15
  store i64 36, ptr %2, align 8
  br label %20

19:                                               ; preds = %15
  store i64 40, ptr %2, align 8
  br label %20

20:                                               ; preds = %19, %18, %14, %10, %6
  %21 = load i64, ptr %2, align 8
  ret i64 %21
}

; Function Attrs: nounwind uwtable
define internal i32 @check_block_(i32 noundef %0, i32 noundef %1, i32 noundef %2, i32 noundef %3) #0 {
  %5 = alloca i32, align 4
  %6 = alloca i32, align 4
  %7 = alloca i32, align 4
  %8 = alloca i32, align 4
  %9 = alloca i32, align 4
  store i32 %0, ptr %6, align 4
  store i32 %1, ptr %7, align 4
  store i32 %2, ptr %8, align 4
  store i32 %3, ptr %9, align 4
  %10 = load i32, ptr %6, align 4
  %11 = load i32, ptr %7, align 4
  %12 = load i32, ptr %8, align 4
  %13 = call i32 @check_off_(i32 noundef %10, i32 noundef %11, i32 noundef %12)
  %14 = icmp ne i32 %13, 0
  br i1 %14, label %16, label %15

15:                                               ; preds = %4
  store i32 0, ptr %5, align 4
  br label %33

16:                                               ; preds = %4
  %17 = load i32, ptr %8, align 4
  %18 = load i32, ptr %9, align 4
  %19 = add i32 %17, %18
  %20 = load i32, ptr %8, align 4
  %21 = icmp ult i32 %19, %20
  br i1 %21, label %22, label %23

22:                                               ; preds = %16
  store i32 0, ptr %5, align 4
  br label %33

23:                                               ; preds = %16
  %24 = load i32, ptr %6, align 4
  %25 = load i32, ptr %7, align 4
  %26 = load i32, ptr %8, align 4
  %27 = load i32, ptr %9, align 4
  %28 = add i32 %26, %27
  %29 = call i32 @check_off_(i32 noundef %24, i32 noundef %25, i32 noundef %28)
  %30 = icmp ne i32 %29, 0
  br i1 %30, label %32, label %31

31:                                               ; preds = %23
  store i32 0, ptr %5, align 4
  br label %33

32:                                               ; preds = %23
  store i32 1, ptr %5, align 4
  br label %33

33:                                               ; preds = %32, %31, %22, %15
  %34 = load i32, ptr %5, align 4
  ret i32 %34
}

; Function Attrs: nounwind uwtable
define internal i32 @check_off_(i32 noundef %0, i32 noundef %1, i32 noundef %2) #0 {
  %4 = alloca i32, align 4
  %5 = alloca i32, align 4
  %6 = alloca i32, align 4
  store i32 %0, ptr %4, align 4
  store i32 %1, ptr %5, align 4
  store i32 %2, ptr %6, align 4
  %7 = load i32, ptr %6, align 4
  %8 = load i32, ptr %4, align 4
  %9 = icmp uge i32 %7, %8
  br i1 %9, label %10, label %14

10:                                               ; preds = %3
  %11 = load i32, ptr %6, align 4
  %12 = load i32, ptr %5, align 4
  %13 = icmp ule i32 %11, %12
  br label %14

14:                                               ; preds = %10, %3
  %15 = phi i1 [ false, %3 ], [ %13, %10 ]
  %16 = zext i1 %15 to i32
  ret i32 %16
}

; Function Attrs: nounwind uwtable
define dso_local i64 @fdt_header_size(ptr noundef %0) #0 {
  %2 = alloca ptr, align 8
  store ptr %0, ptr %2, align 8
  %3 = call zeroext i1 @can_assume_(i32 noundef 4)
  br i1 %3, label %4, label %5

4:                                                ; preds = %1
  br label %10

5:                                                ; preds = %1
  %6 = load ptr, ptr %2, align 8
  %7 = getelementptr inbounds nuw %struct.fdt_header, ptr %6, i32 0, i32 5
  %8 = call i32 @fdt32_ld(ptr noundef %7)
  %9 = call i64 @fdt_header_size_(i32 noundef %8)
  br label %10

10:                                               ; preds = %5, %4
  %11 = phi i64 [ 40, %4 ], [ %9, %5 ]
  ret i64 %11
}

; Function Attrs: inlinehint nounwind uwtable
define internal zeroext i1 @can_assume_(i32 noundef %0) #2 {
  %2 = alloca i32, align 4
  store i32 %0, ptr %2, align 4
  %3 = load i32, ptr %2, align 4
  %4 = and i32 0, %3
  %5 = icmp ne i32 %4, 0
  ret i1 %5
}

; Function Attrs: inlinehint nounwind uwtable
define internal i32 @fdt32_ld(ptr noundef %0) #2 {
  %2 = alloca ptr, align 8
  %3 = alloca ptr, align 8
  store ptr %0, ptr %2, align 8
  call void @llvm.lifetime.start.p0(i64 8, ptr %3) #5
  %4 = load ptr, ptr %2, align 8
  store ptr %4, ptr %3, align 8
  %5 = load ptr, ptr %3, align 8
  %6 = getelementptr inbounds i8, ptr %5, i64 0
  %7 = load i8, ptr %6, align 1
  %8 = zext i8 %7 to i32
  %9 = shl i32 %8, 24
  %10 = load ptr, ptr %3, align 8
  %11 = getelementptr inbounds i8, ptr %10, i64 1
  %12 = load i8, ptr %11, align 1
  %13 = zext i8 %12 to i32
  %14 = shl i32 %13, 16
  %15 = or i32 %9, %14
  %16 = load ptr, ptr %3, align 8
  %17 = getelementptr inbounds i8, ptr %16, i64 2
  %18 = load i8, ptr %17, align 1
  %19 = zext i8 %18 to i32
  %20 = shl i32 %19, 8
  %21 = or i32 %15, %20
  %22 = load ptr, ptr %3, align 8
  %23 = getelementptr inbounds i8, ptr %22, i64 3
  %24 = load i8, ptr %23, align 1
  %25 = zext i8 %24 to i32
  %26 = or i32 %21, %25
  call void @llvm.lifetime.end.p0(i64 8, ptr %3) #5
  ret i32 %26
}

; Function Attrs: nounwind uwtable
define dso_local i32 @fdt_check_header(ptr noundef %0) #0 {
  %2 = alloca i32, align 4
  %3 = alloca ptr, align 8
  %4 = alloca i64, align 8
  %5 = alloca i32, align 4
  store ptr %0, ptr %3, align 8
  call void @llvm.lifetime.start.p0(i64 8, ptr %4) #5
  store i64 0, ptr %4, align 8, !annotation !4
  %6 = load ptr, ptr %3, align 8
  %7 = ptrtoint ptr %6 to i64
  %8 = and i64 %7, 7
  %9 = icmp ne i64 %8, 0
  br i1 %9, label %10, label %11

10:                                               ; preds = %1
  store i32 -19, ptr %2, align 4
  store i32 1, ptr %5, align 4
  br label %125

11:                                               ; preds = %1
  %12 = load ptr, ptr %3, align 8
  %13 = getelementptr inbounds nuw %struct.fdt_header, ptr %12, i32 0, i32 0
  %14 = call i32 @fdt32_ld(ptr noundef %13)
  %15 = icmp ne i32 %14, -804389139
  br i1 %15, label %16, label %17

16:                                               ; preds = %11
  store i32 -9, ptr %2, align 4
  store i32 1, ptr %5, align 4
  br label %125

17:                                               ; preds = %11
  %18 = call zeroext i1 @can_assume_(i32 noundef 4)
  br i1 %18, label %40, label %19

19:                                               ; preds = %17
  %20 = load ptr, ptr %3, align 8
  %21 = getelementptr inbounds nuw %struct.fdt_header, ptr %20, i32 0, i32 5
  %22 = call i32 @fdt32_ld(ptr noundef %21)
  %23 = icmp ult i32 %22, 2
  br i1 %23, label %29, label %24

24:                                               ; preds = %19
  %25 = load ptr, ptr %3, align 8
  %26 = getelementptr inbounds nuw %struct.fdt_header, ptr %25, i32 0, i32 6
  %27 = call i32 @fdt32_ld(ptr noundef %26)
  %28 = icmp ugt i32 %27, 17
  br i1 %28, label %29, label %30

29:                                               ; preds = %24, %19
  store i32 -10, ptr %2, align 4
  store i32 1, ptr %5, align 4
  br label %125

30:                                               ; preds = %24
  %31 = load ptr, ptr %3, align 8
  %32 = getelementptr inbounds nuw %struct.fdt_header, ptr %31, i32 0, i32 5
  %33 = call i32 @fdt32_ld(ptr noundef %32)
  %34 = load ptr, ptr %3, align 8
  %35 = getelementptr inbounds nuw %struct.fdt_header, ptr %34, i32 0, i32 6
  %36 = call i32 @fdt32_ld(ptr noundef %35)
  %37 = icmp ult i32 %33, %36
  br i1 %37, label %38, label %39

38:                                               ; preds = %30
  store i32 -10, ptr %2, align 4
  store i32 1, ptr %5, align 4
  br label %125

39:                                               ; preds = %30
  br label %40

40:                                               ; preds = %39, %17
  %41 = load ptr, ptr %3, align 8
  %42 = call i64 @fdt_header_size(ptr noundef %41)
  store i64 %42, ptr %4, align 8
  %43 = call zeroext i1 @can_assume_(i32 noundef 1)
  br i1 %43, label %70, label %44

44:                                               ; preds = %40
  %45 = load ptr, ptr %3, align 8
  %46 = getelementptr inbounds nuw %struct.fdt_header, ptr %45, i32 0, i32 1
  %47 = call i32 @fdt32_ld(ptr noundef %46)
  %48 = zext i32 %47 to i64
  %49 = load i64, ptr %4, align 8
  %50 = icmp ult i64 %48, %49
  br i1 %50, label %56, label %51

51:                                               ; preds = %44
  %52 = load ptr, ptr %3, align 8
  %53 = getelementptr inbounds nuw %struct.fdt_header, ptr %52, i32 0, i32 1
  %54 = call i32 @fdt32_ld(ptr noundef %53)
  %55 = icmp ugt i32 %54, 2147483647
  br i1 %55, label %56, label %57

56:                                               ; preds = %51, %44
  store i32 -8, ptr %2, align 4
  store i32 1, ptr %5, align 4
  br label %125

57:                                               ; preds = %51
  %58 = load i64, ptr %4, align 8
  %59 = trunc i64 %58 to i32
  %60 = load ptr, ptr %3, align 8
  %61 = getelementptr inbounds nuw %struct.fdt_header, ptr %60, i32 0, i32 1
  %62 = call i32 @fdt32_ld(ptr noundef %61)
  %63 = load ptr, ptr %3, align 8
  %64 = getelementptr inbounds nuw %struct.fdt_header, ptr %63, i32 0, i32 4
  %65 = call i32 @fdt32_ld(ptr noundef %64)
  %66 = call i32 @check_off_(i32 noundef %59, i32 noundef %62, i32 noundef %65)
  %67 = icmp ne i32 %66, 0
  br i1 %67, label %69, label %68

68:                                               ; preds = %57
  store i32 -8, ptr %2, align 4
  store i32 1, ptr %5, align 4
  br label %125

69:                                               ; preds = %57
  br label %70

70:                                               ; preds = %69, %40
  %71 = call zeroext i1 @can_assume_(i32 noundef 1)
  br i1 %71, label %124, label %72

72:                                               ; preds = %70
  %73 = call zeroext i1 @can_assume_(i32 noundef 4)
  br i1 %73, label %92, label %74

74:                                               ; preds = %72
  %75 = load ptr, ptr %3, align 8
  %76 = getelementptr inbounds nuw %struct.fdt_header, ptr %75, i32 0, i32 5
  %77 = call i32 @fdt32_ld(ptr noundef %76)
  %78 = icmp ult i32 %77, 17
  br i1 %78, label %79, label %92

79:                                               ; preds = %74
  %80 = load i64, ptr %4, align 8
  %81 = trunc i64 %80 to i32
  %82 = load ptr, ptr %3, align 8
  %83 = getelementptr inbounds nuw %struct.fdt_header, ptr %82, i32 0, i32 1
  %84 = call i32 @fdt32_ld(ptr noundef %83)
  %85 = load ptr, ptr %3, align 8
  %86 = getelementptr inbounds nuw %struct.fdt_header, ptr %85, i32 0, i32 2
  %87 = call i32 @fdt32_ld(ptr noundef %86)
  %88 = call i32 @check_off_(i32 noundef %81, i32 noundef %84, i32 noundef %87)
  %89 = icmp ne i32 %88, 0
  br i1 %89, label %91, label %90

90:                                               ; preds = %79
  store i32 -8, ptr %2, align 4
  store i32 1, ptr %5, align 4
  br label %125

91:                                               ; preds = %79
  br label %108

92:                                               ; preds = %74, %72
  %93 = load i64, ptr %4, align 8
  %94 = trunc i64 %93 to i32
  %95 = load ptr, ptr %3, align 8
  %96 = getelementptr inbounds nuw %struct.fdt_header, ptr %95, i32 0, i32 1
  %97 = call i32 @fdt32_ld(ptr noundef %96)
  %98 = load ptr, ptr %3, align 8
  %99 = getelementptr inbounds nuw %struct.fdt_header, ptr %98, i32 0, i32 2
  %100 = call i32 @fdt32_ld(ptr noundef %99)
  %101 = load ptr, ptr %3, align 8
  %102 = getelementptr inbounds nuw %struct.fdt_header, ptr %101, i32 0, i32 9
  %103 = call i32 @fdt32_ld(ptr noundef %102)
  %104 = call i32 @check_block_(i32 noundef %94, i32 noundef %97, i32 noundef %100, i32 noundef %103)
  %105 = icmp ne i32 %104, 0
  br i1 %105, label %107, label %106

106:                                              ; preds = %92
  store i32 -8, ptr %2, align 4
  store i32 1, ptr %5, align 4
  br label %125

107:                                              ; preds = %92
  br label %108

108:                                              ; preds = %107, %91
  %109 = load i64, ptr %4, align 8
  %110 = trunc i64 %109 to i32
  %111 = load ptr, ptr %3, align 8
  %112 = getelementptr inbounds nuw %struct.fdt_header, ptr %111, i32 0, i32 1
  %113 = call i32 @fdt32_ld(ptr noundef %112)
  %114 = load ptr, ptr %3, align 8
  %115 = getelementptr inbounds nuw %struct.fdt_header, ptr %114, i32 0, i32 3
  %116 = call i32 @fdt32_ld(ptr noundef %115)
  %117 = load ptr, ptr %3, align 8
  %118 = getelementptr inbounds nuw %struct.fdt_header, ptr %117, i32 0, i32 8
  %119 = call i32 @fdt32_ld(ptr noundef %118)
  %120 = call i32 @check_block_(i32 noundef %110, i32 noundef %113, i32 noundef %116, i32 noundef %119)
  %121 = icmp ne i32 %120, 0
  br i1 %121, label %123, label %122

122:                                              ; preds = %108
  store i32 -8, ptr %2, align 4
  store i32 1, ptr %5, align 4
  br label %125

123:                                              ; preds = %108
  br label %124

124:                                              ; preds = %123, %70
  store i32 0, ptr %2, align 4
  store i32 1, ptr %5, align 4
  br label %125

125:                                              ; preds = %124, %122, %106, %90, %68, %56, %38, %29, %16, %10
  call void @llvm.lifetime.end.p0(i64 8, ptr %4) #5
  %126 = load i32, ptr %2, align 4
  ret i32 %126
}