; Function Attrs: mustprogress nofree norecurse nosync nounwind willreturn memory(argmem: read) uwtable
define dso_local range(i32 -19, 1) i32 @fdt_check_header(ptr noundef %0) local_unnamed_addr #0 {
  %2 = ptrtoint ptr %0 to i64
  %3 = and i64 %2, 7
  %.not = icmp eq i64 %3, 0
  br i1 %.not, label %4, label %check_block_.exit.thread

4:                                                ; preds = %1
  %5 = load i8, ptr %0, align 1
  %6 = zext i8 %5 to i32
  %7 = shl nuw i32 %6, 24
  %8 = getelementptr inbounds nuw i8, ptr %0, i64 1
  %9 = load i8, ptr %8, align 1
  %10 = zext i8 %9 to i32
  %11 = shl nuw nsw i32 %10, 16
  %12 = or disjoint i32 %11, %7
  %13 = getelementptr inbounds nuw i8, ptr %0, i64 2
  %14 = load i8, ptr %13, align 1
  %15 = zext i8 %14 to i32
  %16 = shl nuw nsw i32 %15, 8
  %17 = or disjoint i32 %12, %16
  %18 = getelementptr inbounds nuw i8, ptr %0, i64 3
  %19 = load i8, ptr %18, align 1
  %20 = zext i8 %19 to i32
  %21 = or disjoint i32 %17, %20
  %.not26 = icmp eq i32 %21, -804389139
  br i1 %.not26, label %22, label %check_block_.exit.thread

22:                                               ; preds = %4
  %23 = getelementptr inbounds nuw i8, ptr %0, i64 20
  %24 = load i8, ptr %23, align 1
  %25 = zext i8 %24 to i32
  %26 = shl nuw i32 %25, 24
  %27 = getelementptr inbounds nuw i8, ptr %0, i64 21
  %28 = load i8, ptr %27, align 1
  %29 = zext i8 %28 to i32
  %30 = shl nuw nsw i32 %29, 16
  %31 = getelementptr inbounds nuw i8, ptr %0, i64 22
  %32 = load i8, ptr %31, align 1
  %33 = zext i8 %32 to i32
  %34 = shl nuw nsw i32 %33, 8
  %35 = getelementptr inbounds nuw i8, ptr %0, i64 23
  %36 = load i8, ptr %35, align 1
  %37 = zext i8 %36 to i32
  %38 = or disjoint i32 %30, %34
  %39 = or disjoint i32 %38, %37
  %40 = or disjoint i32 %39, %26
  %41 = icmp ult i32 %40, 2
  br i1 %41, label %check_block_.exit.thread, label %42

42:                                               ; preds = %22
  %43 = getelementptr inbounds nuw i8, ptr %0, i64 24
  %44 = load i8, ptr %43, align 1
  %45 = zext i8 %44 to i32
  %46 = shl nuw i32 %45, 24
  %47 = getelementptr inbounds nuw i8, ptr %0, i64 25
  %48 = load i8, ptr %47, align 1
  %49 = zext i8 %48 to i32
  %50 = shl nuw nsw i32 %49, 16
  %51 = or disjoint i32 %50, %46
  %52 = getelementptr inbounds nuw i8, ptr %0, i64 26
  %53 = load i8, ptr %52, align 1
  %54 = zext i8 %53 to i32
  %55 = shl nuw nsw i32 %54, 8
  %56 = or disjoint i32 %51, %55
  %57 = getelementptr inbounds nuw i8, ptr %0, i64 27
  %58 = load i8, ptr %57, align 1
  %59 = zext i8 %58 to i32
  %60 = or disjoint i32 %56, %59
  %61 = icmp ugt i32 %60, 17
  %62 = icmp ult i32 %40, %60
  %or.cond = or i1 %61, %62
  br i1 %or.cond, label %check_block_.exit.thread, label %63

63:                                               ; preds = %42
  %64 = icmp eq i32 %40, 2
  br i1 %64, label %fdt_header_size.exit, label %65

65:                                               ; preds = %63
  %66 = icmp ult i32 %40, 4
  br i1 %66, label %fdt_header_size.exit, label %67

67:                                               ; preds = %65
  %68 = icmp ult i32 %40, 17
  %..i.i = select i1 %68, i64 36, i64 40
  br label %fdt_header_size.exit

fdt_header_size.exit:                             ; preds = %63, %65, %67
  %.0.i.i = phi i64 [ 32, %63 ], [ 36, %65 ], [ %..i.i, %67 ]
  %69 = getelementptr inbounds nuw i8, ptr %0, i64 4
  %70 = load i8, ptr %69, align 1
  %71 = zext i8 %70 to i32
  %72 = shl nuw i32 %71, 24
  %73 = getelementptr inbounds nuw i8, ptr %0, i64 5
  %74 = load i8, ptr %73, align 1
  %75 = zext i8 %74 to i32
  %76 = shl nuw nsw i32 %75, 16
  %77 = getelementptr inbounds nuw i8, ptr %0, i64 6
  %78 = load i8, ptr %77, align 1
  %79 = zext i8 %78 to i32
  %80 = shl nuw nsw i32 %79, 8
  %81 = getelementptr inbounds nuw i8, ptr %0, i64 7
  %82 = load i8, ptr %81, align 1
  %83 = zext i8 %82 to i32
  %84 = or disjoint i32 %76, %83
  %85 = or disjoint i32 %84, %80
  %86 = or disjoint i32 %85, %72
  %87 = zext i32 %86 to i64
  %88 = icmp samesign ugt i64 %.0.i.i, %87
  %89 = icmp slt i32 %72, 0
  %or.cond40 = or i1 %89, %88
  br i1 %or.cond40, label %check_block_.exit.thread, label %90

90:                                               ; preds = %fdt_header_size.exit
  %91 = trunc nuw nsw i64 %.0.i.i to i32
  %92 = getelementptr inbounds nuw i8, ptr %0, i64 16
  %93 = load i8, ptr %92, align 1
  %94 = zext i8 %93 to i32
  %95 = shl nuw i32 %94, 24
  %96 = getelementptr inbounds nuw i8, ptr %0, i64 17
  %97 = load i8, ptr %96, align 1
  %98 = zext i8 %97 to i32
  %99 = shl nuw nsw i32 %98, 16
  %100 = or disjoint i32 %99, %95
  %101 = getelementptr inbounds nuw i8, ptr %0, i64 18
  %102 = load i8, ptr %101, align 1
  %103 = zext i8 %102 to i32
  %104 = shl nuw nsw i32 %103, 8
  %105 = or disjoint i32 %100, %104
  %106 = getelementptr inbounds nuw i8, ptr %0, i64 19
  %107 = load i8, ptr %106, align 1
  %108 = zext i8 %107 to i32
  %109 = or disjoint i32 %105, %108
  %110 = icmp ult i32 %109, %91
  %111 = icmp ugt i32 %109, %86
  %.not43 = or i1 %110, %111
  br i1 %.not43, label %check_block_.exit.thread, label %112

112:                                              ; preds = %90
  %113 = icmp ult i32 %40, 17
  %114 = getelementptr inbounds nuw i8, ptr %0, i64 8
  %115 = load i8, ptr %114, align 1
  %116 = zext i8 %115 to i32
  %117 = shl nuw i32 %116, 24
  %118 = getelementptr inbounds nuw i8, ptr %0, i64 9
  %119 = load i8, ptr %118, align 1
  %120 = zext i8 %119 to i32
  %121 = shl nuw nsw i32 %120, 16
  %122 = or disjoint i32 %121, %117
  %123 = getelementptr inbounds nuw i8, ptr %0, i64 10
  %124 = load i8, ptr %123, align 1
  %125 = zext i8 %124 to i32
  %126 = shl nuw nsw i32 %125, 8
  %127 = or disjoint i32 %122, %126
  %128 = getelementptr inbounds nuw i8, ptr %0, i64 11
  %129 = load i8, ptr %128, align 1
  %130 = zext i8 %129 to i32
  %131 = or disjoint i32 %127, %130
  %132 = icmp ult i32 %131, %91
  %133 = icmp ugt i32 %131, %86
  %.not47 = or i1 %132, %133
  br i1 %113, label %134, label %135

134:                                              ; preds = %112
  br i1 %.not47, label %check_block_.exit.thread, label %157

135:                                              ; preds = %112
  br i1 %.not47, label %check_block_.exit.thread, label %136

136:                                              ; preds = %135
  %137 = getelementptr inbounds nuw i8, ptr %0, i64 37
  %138 = load i8, ptr %137, align 1
  %139 = zext i8 %138 to i32
  %140 = shl nuw nsw i32 %139, 16
  %141 = getelementptr inbounds nuw i8, ptr %0, i64 36
  %142 = load i8, ptr %141, align 1
  %143 = zext i8 %142 to i32
  %144 = shl nuw i32 %143, 24
  %145 = or disjoint i32 %144, %140
  %146 = getelementptr inbounds nuw i8, ptr %0, i64 38
  %147 = load i8, ptr %146, align 1
  %148 = zext i8 %147 to i32
  %149 = shl nuw nsw i32 %148, 8
  %150 = or disjoint i32 %145, %149
  %151 = getelementptr inbounds nuw i8, ptr %0, i64 39
  %152 = load i8, ptr %151, align 1
  %153 = zext i8 %152 to i32
  %154 = or disjoint i32 %150, %153
  %155 = add i32 %154, %131
  %156 = icmp ult i32 %155, %131
  %.not44 = icmp ugt i32 %155, %86
  %or.cond49 = or i1 %156, %.not44
  br i1 %or.cond49, label %check_block_.exit.thread, label %157

157:                                              ; preds = %136, %134
  %158 = getelementptr inbounds nuw i8, ptr %0, i64 12
  %159 = load i8, ptr %158, align 1
  %160 = zext i8 %159 to i32
  %161 = shl nuw i32 %160, 24
  %162 = getelementptr inbounds nuw i8, ptr %0, i64 13
  %163 = load i8, ptr %162, align 1
  %164 = zext i8 %163 to i32
  %165 = shl nuw nsw i32 %164, 16
  %166 = or disjoint i32 %165, %161
  %167 = getelementptr inbounds nuw i8, ptr %0, i64 14
  %168 = load i8, ptr %167, align 1
  %169 = zext i8 %168 to i32
  %170 = shl nuw nsw i32 %169, 8
  %171 = or disjoint i32 %166, %170
  %172 = getelementptr inbounds nuw i8, ptr %0, i64 15
  %173 = load i8, ptr %172, align 1
  %174 = zext i8 %173 to i32
  %175 = or disjoint i32 %171, %174
  %176 = icmp ult i32 %175, %91
  %177 = icmp ugt i32 %175, %86
  %.not15.i31 = or i1 %176, %177
  br i1 %.not15.i31, label %check_block_.exit34.thread, label %178

178:                                              ; preds = %157
  %179 = getelementptr inbounds nuw i8, ptr %0, i64 33
  %180 = load i8, ptr %179, align 1
  %181 = zext i8 %180 to i32
  %182 = shl nuw nsw i32 %181, 16
  %183 = getelementptr inbounds nuw i8, ptr %0, i64 32
  %184 = load i8, ptr %183, align 1
  %185 = zext i8 %184 to i32
  %186 = shl nuw i32 %185, 24
  %187 = or disjoint i32 %186, %182
  %188 = getelementptr inbounds nuw i8, ptr %0, i64 34
  %189 = load i8, ptr %188, align 1
  %190 = zext i8 %189 to i32
  %191 = shl nuw nsw i32 %190, 8
  %192 = or disjoint i32 %187, %191
  %193 = getelementptr inbounds nuw i8, ptr %0, i64 35
  %194 = load i8, ptr %193, align 1
  %195 = zext i8 %194 to i32
  %196 = or disjoint i32 %192, %195
  %197 = add i32 %196, %175
  %198 = icmp ult i32 %197, %175
  br i1 %198, label %check_block_.exit34.thread, label %check_block_.exit34

check_block_.exit34:                              ; preds = %178
  %.not48 = icmp ugt i32 %197, %86
  %cond.fr = freeze i1 %.not48
  br i1 %cond.fr, label %check_block_.exit34.thread, label %check_block_.exit.thread

check_block_.exit34.thread:                       ; preds = %178, %157, %check_block_.exit34
  br label %check_block_.exit.thread

check_block_.exit.thread:                         ; preds = %136, %135, %check_block_.exit34.thread, %check_block_.exit34, %134, %90, %fdt_header_size.exit, %22, %42, %4, %1
  %.0 = phi i32 [ -19, %1 ], [ -9, %4 ], [ -10, %42 ], [ -10, %22 ], [ -8, %fdt_header_size.exit ], [ -8, %90 ], [ -8, %134 ], [ -8, %check_block_.exit34.thread ], [ 0, %check_block_.exit34 ], [ -8, %135 ], [ -8, %136 ]
  ret i32 %.0
}